; Function Attrs: nounwind uwtable
define noalias ptr @l_Array_forIn_x27Unsafe_loop___at_Lean_Elab_Term_elabOpen___spec__47___boxed(ptr noundef %0, ptr noundef %1, ptr noundef %2, ptr noundef %3, ptr noundef %4, ptr noundef %5, ptr noundef %6, ptr noundef %7, ptr noundef %8, ptr noundef %9, ptr noundef %10, ptr noundef %11, ptr noundef %12) local_unnamed_addr #0 {
  %14 = getelementptr i8, ptr %3, i64 8
  %.val56 = load i64, ptr %14, align 8, !tbaa !11
  %15 = ptrtoint ptr %3 to i64
  %16 = and i64 %15, 1
  %.not = icmp eq i64 %16, 0
  br i1 %.not, label %17, label %lean_dec.exit35

17:                                               ; preds = %13
  %18 = load i32, ptr %3, align 4, !tbaa !8
  %19 = icmp sgt i32 %18, 1
  br i1 %19, label %20, label %22, !prof !15

20:                                               ; preds = %17
  %21 = add nsw i32 %18, -1
  store i32 %21, ptr %3, align 4, !tbaa !8
  br label %lean_dec.exit35

22:                                               ; preds = %17
  %.not.i = icmp eq i32 %18, 0
  br i1 %.not.i, label %lean_dec.exit35, label %23

23:                                               ; preds = %22
  tail call void @lean_dec_ref_cold(ptr noundef nonnull %3) #6
  br label %lean_dec.exit35

lean_dec.exit35:                                  ; preds = %23, %22, %20, %13
  %24 = getelementptr i8, ptr %4, i64 8
  %.val = load i64, ptr %24, align 8, !tbaa !11
  %25 = ptrtoint ptr %4 to i64
  %26 = and i64 %25, 1
  %.not57 = icmp eq i64 %26, 0
  br i1 %.not57, label %27, label %lean_dec.exit34

27:                                               ; preds = %lean_dec.exit35
  %28 = load i32, ptr %4, align 4, !tbaa !8
  %29 = icmp sgt i32 %28, 1
  br i1 %29, label %30, label %32, !prof !15

30:                                               ; preds = %27
  %31 = add nsw i32 %28, -1
  store i32 %31, ptr %4, align 4, !tbaa !8
  br label %lean_dec.exit34

32:                                               ; preds = %27
  %.not.i36 = icmp eq i32 %28, 0
  br i1 %.not.i36, label %lean_dec.exit34, label %33

33:                                               ; preds = %32
  tail call void @lean_dec_ref_cold(ptr noundef nonnull %4) #6
  br label %lean_dec.exit34

lean_dec.exit34:                                  ; preds = %33, %32, %30, %lean_dec.exit35
  %34 = tail call ptr @l_Array_forIn_x27Unsafe_loop___at_Lean_Elab_Term_elabOpen___spec__47(ptr poison, ptr poison, ptr noundef %2, i64 noundef %.val56, i64 noundef %.val, ptr noundef %5, ptr poison, ptr poison, ptr poison, ptr noundef %9, ptr poison, ptr noundef %11, ptr noundef %12)
  %35 = ptrtoint ptr %11 to i64
  %36 = and i64 %35, 1
  %.not58 = icmp eq i64 %36, 0
  br i1 %.not58, label %37, label %lean_dec.exit33

37:                                               ; preds = %lean_dec.exit34
  %38 = load i32, ptr %11, align 4, !tbaa !8
  %39 = icmp sgt i32 %38, 1
  br i1 %39, label %40, label %42, !prof !15

40:                                               ; preds = %37
  %41 = add nsw i32 %38, -1
  store i32 %41, ptr %11, align 4, !tbaa !8
  br label %lean_dec.exit33

42:                                               ; preds = %37
  %.not.i38 = icmp eq i32 %38, 0
  br i1 %.not.i38, label %lean_dec.exit33, label %43

43:                                               ; preds = %42
  tail call void @lean_dec_ref_cold(ptr noundef nonnull %11) #6
  br label %lean_dec.exit33

lean_dec.exit33:                                  ; preds = %43, %42, %40, %lean_dec.exit34
  %44 = ptrtoint ptr %10 to i64
  %45 = and i64 %44, 1
  %.not59 = icmp eq i64 %45, 0
  br i1 %.not59, label %46, label %lean_dec.exit32

46:                                               ; preds = %lean_dec.exit33
  %47 = load i32, ptr %10, align 4, !tbaa !8
  %48 = icmp sgt i32 %47, 1
  br i1 %48, label %49, label %51, !prof !15

49:                                               ; preds = %46
  %50 = add nsw i32 %47, -1
  store i32 %50, ptr %10, align 4, !tbaa !8
  br label %lean_dec.exit32

51:                                               ; preds = %46
  %.not.i40 = icmp eq i32 %47, 0
  br i1 %.not.i40, label %lean_dec.exit32, label %52

52:                                               ; preds = %51
  tail call void @lean_dec_ref_cold(ptr noundef nonnull %10) #6
  br label %lean_dec.exit32

lean_dec.exit32:                                  ; preds = %52, %51, %49, %lean_dec.exit33
  %53 = ptrtoint ptr %9 to i64
  %54 = and i64 %53, 1
  %.not60 = icmp eq i64 %54, 0
  br i1 %.not60, label %55, label %lean_dec.exit31

55:                                               ; preds = %lean_dec.exit32
  %56 = load i32, ptr %9, align 4, !tbaa !8
  %57 = icmp sgt i32 %56, 1
  br i1 %57, label %58, label %60, !prof !15

58:                                               ; preds = %55
  %59 = add nsw i32 %56, -1
  store i32 %59, ptr %9, align 4, !tbaa !8
  br label %lean_dec.exit31

60:                                               ; preds = %55
  %.not.i42 = icmp eq i32 %56, 0
  br i1 %.not.i42, label %lean_dec.exit31, label %61

61:                                               ; preds = %60
  tail call void @lean_dec_ref_cold(ptr noundef nonnull %9) #6
  br label %lean_dec.exit31

lean_dec.exit31:                                  ; preds = %61, %60, %58, %lean_dec.exit32
  %62 = ptrtoint ptr %8 to i64
  %63 = and i64 %62, 1
  %.not61 = icmp eq i64 %63, 0
  br i1 %.not61, label %64, label %lean_dec.exit30

64:                                               ; preds = %lean_dec.exit31
  %65 = load i32, ptr %8, align 4, !tbaa !8
  %66 = icmp sgt i32 %65, 1
  br i1 %66, label %67, label %69, !prof !15

67:                                               ; preds = %64
  %68 = add nsw i32 %65, -1
  store i32 %68, ptr %8, align 4, !tbaa !8
  br label %lean_dec.exit30

69:                                               ; preds = %64
  %.not.i44 = icmp eq i32 %65, 0
  br i1 %.not.i44, label %lean_dec.exit30, label %70

70:                                               ; preds = %69
  tail call void @lean_dec_ref_cold(ptr noundef nonnull %8) #6
  br label %lean_dec.exit30

lean_dec.exit30:                                  ; preds = %70, %69, %67, %lean_dec.exit31
  %71 = ptrtoint ptr %7 to i64
  %72 = and i64 %71, 1
  %.not62 = icmp eq i64 %72, 0
  br i1 %.not62, label %73, label %lean_dec.exit29

73:                                               ; preds = %lean_dec.exit30
  %74 = load i32, ptr %7, align 4, !tbaa !8
  %75 = icmp sgt i32 %74, 1
  br i1 %75, label %76, label %78, !prof !15

76:                                               ; preds = %73
  %77 = add nsw i32 %74, -1
  store i32 %77, ptr %7, align 4, !tbaa !8
  br label %lean_dec.exit29

78:                                               ; preds = %73
  %.not.i46 = icmp eq i32 %74, 0
  br i1 %.not.i46, label %lean_dec.exit29, label %79

79:                                               ; preds = %78
  tail call void @lean_dec_ref_cold(ptr noundef nonnull %7) #6
  br label %lean_dec.exit29

lean_dec.exit29:                                  ; preds = %79, %78, %76, %lean_dec.exit30
  %80 = ptrtoint ptr %6 to i64
  %81 = and i64 %80, 1
  %.not63 = icmp eq i64 %81, 0
  br i1 %.not63, label %82, label %lean_dec.exit28

82:                                               ; preds = %lean_dec.exit29
  %83 = load i32, ptr %6, align 4, !tbaa !8
  %84 = icmp sgt i32 %83, 1
  br i1 %84, label %85, label %87, !prof !15

85:                                               ; preds = %82
  %86 = add nsw i32 %83, -1
  store i32 %86, ptr %6, align 4, !tbaa !8
  br label %lean_dec.exit28

87:                                               ; preds = %82
  %.not.i48 = icmp eq i32 %83, 0
  br i1 %.not.i48, label %lean_dec.exit28, label %88

88:                                               ; preds = %87
  tail call void @lean_dec_ref_cold(ptr noundef nonnull %6) #6
  br label %lean_dec.exit28

lean_dec.exit28:                                  ; preds = %88, %87, %85, %lean_dec.exit29
  %89 = ptrtoint ptr %2 to i64
  %90 = and i64 %89, 1
  %.not64 = icmp eq i64 %90, 0
  br i1 %.not64, label %91, label %lean_dec.exit27

91:                                               ; preds = %lean_dec.exit28
  %92 = load i32, ptr %2, align 4, !tbaa !8
  %93 = icmp sgt i32 %92, 1
  br i1 %93, label %94, label %96, !prof !15

94:                                               ; preds = %91
  %95 = add nsw i32 %92, -1
  store i32 %95, ptr %2, align 4, !tbaa !8
  br label %lean_dec.exit27

96:                                               ; preds = %91
  %.not.i50 = icmp eq i32 %92, 0
  br i1 %.not.i50, label %lean_dec.exit27, label %97

97:                                               ; preds = %96
  tail call void @lean_dec_ref_cold(ptr noundef nonnull %2) #6
  br label %lean_dec.exit27

lean_dec.exit27:                                  ; preds = %97, %96, %94, %lean_dec.exit28
  %98 = ptrtoint ptr %1 to i64
  %99 = and i64 %98, 1
  %.not65 = icmp eq i64 %99, 0
  br i1 %.not65, label %100, label %lean_dec.exit26

100:                                              ; preds = %lean_dec.exit27
  %101 = load i32, ptr %1, align 4, !tbaa !8
  %102 = icmp sgt i32 %101, 1
  br i1 %102, label %103, label %105, !prof !15

103:                                              ; preds = %100
  %104 = add nsw i32 %101, -1
  store i32 %104, ptr %1, align 4, !tbaa !8
  br label %lean_dec.exit26

105:                                              ; preds = %100
  %.not.i52 = icmp eq i32 %101, 0
  br i1 %.not.i52, label %lean_dec.exit26, label %106

106:                                              ; preds = %105
  tail call void @lean_dec_ref_cold(ptr noundef nonnull %1) #6
  br label %lean_dec.exit26

lean_dec.exit26:                                  ; preds = %106, %105, %103, %lean_dec.exit27
  %107 = ptrtoint ptr %0 to i64
  %108 = and i64 %107, 1
  %.not66 = icmp eq i64 %108, 0
  br i1 %.not66, label %109, label %lean_dec.exit

109:                                              ; preds = %lean_dec.exit26
  %110 = load i32, ptr %0, align 4, !tbaa !8
  %111 = icmp sgt i32 %110, 1
  br i1 %111, label %112, label %114, !prof !15

112:                                              ; preds = %109
  %113 = add nsw i32 %110, -1
  store i32 %113, ptr %0, align 4, !tbaa !8
  br label %lean_dec.exit

114:                                              ; preds = %109
  %.not.i54 = icmp eq i32 %110, 0
  br i1 %.not.i54, label %lean_dec.exit, label %115

115:                                              ; preds = %114
  tail call void @lean_dec_ref_cold(ptr noundef nonnull %0) #6
  br label %lean_dec.exit

lean_dec.exit:                                    ; preds = %115, %114, %112, %lean_dec.exit26
  ret ptr %34
}